target datalayout = "e-m:e-p270:32:32-p271:32:32-p272:64:64-i64:64-i128:128-f80:128-n8:16:32:64-S128"
target triple = "x86_64-pc-linux-gnu"

%struct.Sfm_Par_t_ = type { i32, i32, i32, i32, i32, i32, i32, i32, i32, i32, i32, i32, i32, i32, i32, i32, i32, i32, i32, i32, i32, i32, i32, i32, i32, i32, i32, i32, i32, i32, i32 }
%struct.Sfm_Ntk_t_ = type { ptr, i32, i32, i32, i32, i32, ptr, ptr, ptr, %struct.Vec_Wec_t_, ptr, ptr, %struct.Vec_Wec_t_, %struct.Vec_Int_t_, %struct.Vec_Int_t_, %struct.Vec_Int_t_, %struct.Vec_Int_t_, %struct.Vec_Int_t_, ptr, ptr, %struct.Vec_Int_t_, %struct.Vec_Int_t_, i32, i32, i32, ptr, ptr, ptr, ptr, ptr, i32, i32, i32, i32, i32, i32, i32, i32, ptr, ptr, ptr, ptr, ptr, ptr, ptr, ptr, [12 x [64 x i64]], [12 x ptr], [64 x i64], [64 x i64], i32, i32, i32, i32, i32, i32, i32, i32, i32, i64, i64, i64, i64, i64, i64 }
%struct.Vec_Wec_t_ = type { i32, i32, ptr }
%struct.Vec_Int_t_ = type { i32, i32, ptr }

; Function Attrs: inlinehint nounwind uwtable
define internal ptr @Vec_WecEntry(ptr noundef %0, i32 noundef %1) #3 {
  %3 = alloca ptr, align 8
  %4 = alloca i32, align 4
  store ptr %0, ptr %3, align 8, !tbaa !93
  store i32 %1, ptr %4, align 4, !tbaa !60
  %5 = load ptr, ptr %3, align 8, !tbaa !93
  %6 = getelementptr inbounds nuw %struct.Vec_Wec_t_, ptr %5, i32 0, i32 2
  %7 = load ptr, ptr %6, align 8, !tbaa !94
  %8 = load i32, ptr %4, align 4, !tbaa !60
  %9 = sext i32 %8 to i64
  %10 = getelementptr inbounds %struct.Vec_Int_t_, ptr %7, i64 %9
  ret ptr %10
}

; Function Attrs: inlinehint nounwind uwtable
define internal ptr @Sfm_ObjFoArray(ptr noundef %0, i32 noundef %1) #3 {
  %3 = alloca ptr, align 8
  %4 = alloca i32, align 4
  store ptr %0, ptr %3, align 8, !tbaa !22
  store i32 %1, ptr %4, align 4, !tbaa !60
  %5 = load ptr, ptr %3, align 8, !tbaa !22
  %6 = getelementptr inbounds nuw %struct.Sfm_Ntk_t_, ptr %5, i32 0, i32 12
  %7 = load i32, ptr %4, align 4, !tbaa !60
  %8 = call ptr @Vec_WecEntry(ptr noundef %6, i32 noundef %7)
  ret ptr %8
}

; Function Attrs: inlinehint nounwind uwtable
define internal i32 @Vec_IntEntry(ptr noundef %0, i32 noundef %1) #3 {
  %3 = alloca ptr, align 8
  %4 = alloca i32, align 4
  store ptr %0, ptr %3, align 8, !tbaa !77
  store i32 %1, ptr %4, align 4, !tbaa !60
  %5 = load ptr, ptr %3, align 8, !tbaa !77
  %6 = getelementptr inbounds nuw %struct.Vec_Int_t_, ptr %5, i32 0, i32 2
  %7 = load ptr, ptr %6, align 8, !tbaa !86
  %8 = load i32, ptr %4, align 4, !tbaa !60
  %9 = sext i32 %8 to i64
  %10 = getelementptr inbounds i32, ptr %7, i64 %9
  %11 = load i32, ptr %10, align 4, !tbaa !60
  ret i32 %11
}

; Function Attrs: inlinehint nounwind uwtable
define internal i32 @Vec_IntSize(ptr noundef %0) #3 {
  %2 = alloca ptr, align 8
  store ptr %0, ptr %2, align 8, !tbaa !77
  %3 = load ptr, ptr %2, align 8, !tbaa !77
  %4 = getelementptr inbounds nuw %struct.Vec_Int_t_, ptr %3, i32 0, i32 1
  %5 = load i32, ptr %4, align 4, !tbaa !78
  ret i32 %5
}

; Function Attrs: inlinehint nounwind uwtable
define internal ptr @Sfm_ObjFiArray(ptr noundef %0, i32 noundef %1) #3 {
  %3 = alloca ptr, align 8
  %4 = alloca i32, align 4
  store ptr %0, ptr %3, align 8, !tbaa !22
  store i32 %1, ptr %4, align 4, !tbaa !60
  %5 = load ptr, ptr %3, align 8, !tbaa !22
  %6 = getelementptr inbounds nuw %struct.Sfm_Ntk_t_, ptr %5, i32 0, i32 9
  %7 = load i32, ptr %4, align 4, !tbaa !60
  %8 = call ptr @Vec_WecEntry(ptr noundef %6, i32 noundef %7)
  ret ptr %8
}

; Function Attrs: inlinehint nounwind uwtable
define internal i32 @Sfm_ObjFanoutNum(ptr noundef %0, i32 noundef %1) #3 {
  %3 = alloca ptr, align 8
  %4 = alloca i32, align 4
  store ptr %0, ptr %3, align 8, !tbaa !22
  store i32 %1, ptr %4, align 4, !tbaa !60
  %5 = load ptr, ptr %3, align 8, !tbaa !22
  %6 = load i32, ptr %4, align 4, !tbaa !60
  %7 = call ptr @Sfm_ObjFoArray(ptr noundef %5, i32 noundef %6)
  %8 = call i32 @Vec_IntSize(ptr noundef %7)
  ret i32 %8
}

; Function Attrs: inlinehint nounwind uwtable
define internal i32 @Sfm_ObjIsNode(ptr noundef %0, i32 noundef %1) #3 {
  %3 = alloca ptr, align 8
  %4 = alloca i32, align 4
  store ptr %0, ptr %3, align 8, !tbaa !22
  store i32 %1, ptr %4, align 4, !tbaa !60
  %5 = load i32, ptr %4, align 4, !tbaa !60
  %6 = load ptr, ptr %3, align 8, !tbaa !22
  %7 = getelementptr inbounds nuw %struct.Sfm_Ntk_t_, ptr %6, i32 0, i32 1
  %8 = load i32, ptr %7, align 8, !tbaa !58
  %9 = icmp sge i32 %5, %8
  br i1 %9, label %10, label %20

10:                                               ; preds = %2
  %11 = load i32, ptr %4, align 4, !tbaa !60
  %12 = load ptr, ptr %3, align 8, !tbaa !22
  %13 = getelementptr inbounds nuw %struct.Sfm_Ntk_t_, ptr %12, i32 0, i32 2
  %14 = load i32, ptr %13, align 4, !tbaa !59
  %15 = add nsw i32 %11, %14
  %16 = load ptr, ptr %3, align 8, !tbaa !22
  %17 = getelementptr inbounds nuw %struct.Sfm_Ntk_t_, ptr %16, i32 0, i32 4
  %18 = load i32, ptr %17, align 4, !tbaa !57
  %19 = icmp slt i32 %15, %18
  br label %20

20:                                               ; preds = %10, %2
  %21 = phi i1 [ false, %2 ], [ %19, %10 ]
  %22 = zext i1 %21 to i32
  ret i32 %22
}

; Function Attrs: inlinehint nounwind uwtable
define internal i32 @Sfm_ObjFanin(ptr noundef %0, i32 noundef %1, i32 noundef %2) #3 {
  %4 = alloca ptr, align 8
  %5 = alloca i32, align 4
  %6 = alloca i32, align 4
  store ptr %0, ptr %4, align 8, !tbaa !22
  store i32 %1, ptr %5, align 4, !tbaa !60
  store i32 %2, ptr %6, align 4, !tbaa !60
  %7 = load ptr, ptr %4, align 8, !tbaa !22
  %8 = load i32, ptr %5, align 4, !tbaa !60
  %9 = call ptr @Sfm_ObjFiArray(ptr noundef %7, i32 noundef %8)
  %10 = load i32, ptr %6, align 4, !tbaa !60
  %11 = call i32 @Vec_IntEntry(ptr noundef %9, i32 noundef %10)
  ret i32 %11
}

; Function Attrs: inlinehint nounwind uwtable
define internal i32 @Sfm_ObjFaninNum(ptr noundef %0, i32 noundef %1) #3 {
  %3 = alloca ptr, align 8
  %4 = alloca i32, align 4
  store ptr %0, ptr %3, align 8, !tbaa !22
  store i32 %1, ptr %4, align 4, !tbaa !60
  %5 = load ptr, ptr %3, align 8, !tbaa !22
  %6 = load i32, ptr %4, align 4, !tbaa !60
  %7 = call ptr @Sfm_ObjFiArray(ptr noundef %5, i32 noundef %6)
  %8 = call i32 @Vec_IntSize(ptr noundef %7)
  ret i32 %8
}

; Function Attrs: nounwind uwtable
define i32 @Sfm_NodeResub(ptr noundef %0, i32 noundef %1) #0 {
  %3 = alloca i32, align 4
  %4 = alloca ptr, align 8
  %5 = alloca i32, align 4
  %6 = alloca i32, align 4
  %7 = alloca i32, align 4
  %8 = alloca i32, align 4
  store ptr %0, ptr %4, align 8, !tbaa !22
  store i32 %1, ptr %5, align 4, !tbaa !60
  call void @llvm.lifetime.start.p0(i64 4, ptr %6) #10
  call void @llvm.lifetime.start.p0(i64 4, ptr %7) #10
  %9 = load ptr, ptr %4, align 8, !tbaa !22
  %10 = getelementptr inbounds nuw %struct.Sfm_Ntk_t_, ptr %9, i32 0, i32 54
  %11 = load i32, ptr %10, align 8, !tbaa !40
  %12 = add nsw i32 %11, 1
  store i32 %12, ptr %10, align 8, !tbaa !40
  %13 = load ptr, ptr %4, align 8, !tbaa !22
  %14 = load i32, ptr %5, align 4, !tbaa !60
  %15 = load ptr, ptr %4, align 8, !tbaa !22
  %16 = getelementptr inbounds nuw %struct.Sfm_Ntk_t_, ptr %15, i32 0, i32 0
  %17 = load ptr, ptr %16, align 8, !tbaa !49
  %18 = getelementptr inbounds nuw %struct.Sfm_Par_t_, ptr %17, i32 0, i32 30
  %19 = load i32, ptr %18, align 4, !tbaa !21
  %20 = call i32 @Sfm_NtkCreateWindow(ptr noundef %13, i32 noundef %14, i32 noundef %19)
  %21 = icmp ne i32 %20, 0
  br i1 %21, label %23, label %22

22:                                               ; preds = %2
  store i32 0, ptr %3, align 4
  store i32 1, ptr %8, align 4
  br label %128

23:                                               ; preds = %2
  %24 = load ptr, ptr %4, align 8, !tbaa !22
  %25 = call i32 @Sfm_NtkWindowToSolver(ptr noundef %24)
  %26 = icmp ne i32 %25, 0
  br i1 %26, label %28, label %27

27:                                               ; preds = %23
  store i32 0, ptr %3, align 4
  store i32 1, ptr %8, align 4
  br label %128

28:                                               ; preds = %23
  store i32 0, ptr %6, align 4, !tbaa !60
  br label %29

29:                                               ; preds = %61, %28
  %30 = load i32, ptr %6, align 4, !tbaa !60
  %31 = load ptr, ptr %4, align 8, !tbaa !22
  %32 = load i32, ptr %5, align 4, !tbaa !60
  %33 = call i32 @Sfm_ObjFaninNum(ptr noundef %31, i32 noundef %32)
  %34 = icmp slt i32 %30, %33
  br i1 %34, label %35, label %40

35:                                               ; preds = %29
  %36 = load ptr, ptr %4, align 8, !tbaa !22
  %37 = load i32, ptr %5, align 4, !tbaa !60
  %38 = load i32, ptr %6, align 4, !tbaa !60
  %39 = call i32 @Sfm_ObjFanin(ptr noundef %36, i32 noundef %37, i32 noundef %38)
  store i32 %39, ptr %7, align 4, !tbaa !60
  br label %40

40:                                               ; preds = %35, %29
  %41 = phi i1 [ false, %29 ], [ true, %35 ]
  br i1 %41, label %42, label %64

42:                                               ; preds = %40
  %43 = load ptr, ptr %4, align 8, !tbaa !22
  %44 = load i32, ptr %7, align 4, !tbaa !60
  %45 = call i32 @Sfm_ObjIsNode(ptr noundef %43, i32 noundef %44)
  %46 = icmp ne i32 %45, 0
  br i1 %46, label %47, label %60

47:                                               ; preds = %42
  %48 = load ptr, ptr %4, align 8, !tbaa !22
  %49 = load i32, ptr %7, align 4, !tbaa !60
  %50 = call i32 @Sfm_ObjFanoutNum(ptr noundef %48, i32 noundef %49)
  %51 = icmp eq i32 %50, 1
  br i1 %51, label %52, label %60

52:                                               ; preds = %47
  %53 = load ptr, ptr %4, align 8, !tbaa !22
  %54 = load i32, ptr %5, align 4, !tbaa !60
  %55 = load i32, ptr %6, align 4, !tbaa !60
  %56 = call i32 @Sfm_NodeResubSolve(ptr noundef %53, i32 noundef %54, i32 noundef %55, i32 noundef 0)
  %57 = icmp ne i32 %56, 0
  br i1 %57, label %58, label %59

58:                                               ; preds = %52
  store i32 1, ptr %3, align 4
  store i32 1, ptr %8, align 4
  br label %128

59:                                               ; preds = %52
  br label %60

60:                                               ; preds = %59, %47, %42
  br label %61

61:                                               ; preds = %60
  %62 = load i32, ptr %6, align 4, !tbaa !60
  %63 = add nsw i32 %62, 1
  store i32 %63, ptr %6, align 4, !tbaa !60
  br label %29, !llvm.loop !95

64:                                               ; preds = %40
  %65 = load ptr, ptr %4, align 8, !tbaa !22
  %66 = getelementptr inbounds nuw %struct.Sfm_Ntk_t_, ptr %65, i32 0, i32 0
  %67 = load ptr, ptr %66, align 8, !tbaa !49
  %68 = getelementptr inbounds nuw %struct.Sfm_Par_t_, ptr %67, i32 0, i32 18
  %69 = load i32, ptr %68, align 4, !tbaa !17
  %70 = icmp ne i32 %69, 0
  br i1 %70, label %108, label %71

71:                                               ; preds = %64
  store i32 0, ptr %6, align 4, !tbaa !60
  br label %72

72:                                               ; preds = %104, %71
  %73 = load i32, ptr %6, align 4, !tbaa !60
  %74 = load ptr, ptr %4, align 8, !tbaa !22
  %75 = load i32, ptr %5, align 4, !tbaa !60
  %76 = call i32 @Sfm_ObjFaninNum(ptr noundef %74, i32 noundef %75)
  %77 = icmp slt i32 %73, %76
  br i1 %77, label %78, label %83

78:                                               ; preds = %72
  %79 = load ptr, ptr %4, align 8, !tbaa !22
  %80 = load i32, ptr %5, align 4, !tbaa !60
  %81 = load i32, ptr %6, align 4, !tbaa !60
  %82 = call i32 @Sfm_ObjFanin(ptr noundef %79, i32 noundef %80, i32 noundef %81)
  store i32 %82, ptr %7, align 4, !tbaa !60
  br label %83

83:                                               ; preds = %78, %72
  %84 = phi i1 [ false, %72 ], [ true, %78 ]
  br i1 %84, label %85, label %107

85:                                               ; preds = %83
  %86 = load ptr, ptr %4, align 8, !tbaa !22
  %87 = load i32, ptr %7, align 4, !tbaa !60
  %88 = call i32 @Sfm_ObjIsNode(ptr noundef %86, i32 noundef %87)
  %89 = icmp ne i32 %88, 0
  br i1 %89, label %90, label %95

90:                                               ; preds = %85
  %91 = load ptr, ptr %4, align 8, !tbaa !22
  %92 = load i32, ptr %7, align 4, !tbaa !60
  %93 = call i32 @Sfm_ObjFanoutNum(ptr noundef %91, i32 noundef %92)
  %94 = icmp eq i32 %93, 1
  br i1 %94, label %103, label %95

95:                                               ; preds = %90, %85
  %96 = load ptr, ptr %4, align 8, !tbaa !22
  %97 = load i32, ptr %5, align 4, !tbaa !60
  %98 = load i32, ptr %6, align 4, !tbaa !60
  %99 = call i32 @Sfm_NodeResubSolve(ptr noundef %96, i32 noundef %97, i32 noundef %98, i32 noundef 1)
  %100 = icmp ne i32 %99, 0
  br i1 %100, label %101, label %102

101:                                              ; preds = %95
  store i32 1, ptr %3, align 4
  store i32 1, ptr %8, align 4
  br label %128

102:                                              ; preds = %95
  br label %103

103:                                              ; preds = %102, %90
  br label %104

104:                                              ; preds = %103
  %105 = load i32, ptr %6, align 4, !tbaa !60
  %106 = add nsw i32 %105, 1
  store i32 %106, ptr %6, align 4, !tbaa !60
  br label %72, !llvm.loop !96

107:                                              ; preds = %83
  br label %108

108:                                              ; preds = %107, %64
  %109 = load ptr, ptr %4, align 8, !tbaa !22
  %110 = getelementptr inbounds nuw %struct.Sfm_Ntk_t_, ptr %109, i32 0, i32 0
  %111 = load ptr, ptr %110, align 8, !tbaa !49
  %112 = getelementptr inbounds nuw %struct.Sfm_Par_t_, ptr %111, i32 0, i32 24
  %113 = load i32, ptr %112, align 4, !tbaa !50
  %114 = icmp ne i32 %113, 0
  br i1 %114, label %115, label %127

115:                                              ; preds = %108
  %116 = load ptr, ptr %4, align 8, !tbaa !22
  %117 = load i32, ptr %5, align 4, !tbaa !60
  %118 = call i32 @Sfm_ObjFaninNum(ptr noundef %116, i32 noundef %117)
  %119 = icmp sle i32 %118, 6
  br i1 %119, label %120, label %127

120:                                              ; preds = %115
  %121 = load ptr, ptr %4, align 8, !tbaa !22
  %122 = load i32, ptr %5, align 4, !tbaa !60
  %123 = call i32 @Sfm_NodeResubOne(ptr noundef %121, i32 noundef %122)
  %124 = icmp ne i32 %123, 0
  br i1 %124, label %125, label %126

125:                                              ; preds = %120
  store i32 1, ptr %3, align 4
  store i32 1, ptr %8, align 4
  br label %128

126:                                              ; preds = %120
  br label %127

127:                                              ; preds = %126, %115, %108
  store i32 0, ptr %3, align 4
  store i32 1, ptr %8, align 4
  br label %128

128:                                              ; preds = %127, %125, %101, %58, %27, %22
  call void @llvm.lifetime.end.p0(i64 4, ptr %7) #10
  call void @llvm.lifetime.end.p0(i64 4, ptr %6) #10
  %129 = load i32, ptr %3, align 4
  ret i32 %129
}