; Function Attrs: nounwind uwtable
define range(i32 0, 2) i32 @Sfm_NodeResub(ptr noundef %0, i32 noundef %1) local_unnamed_addr #2 {
  %3 = getelementptr inbounds nuw i8, ptr %0, i64 7664
  %4 = load i32, ptr %3, align 8, !tbaa !37
  %5 = add nsw i32 %4, 1
  store i32 %5, ptr %3, align 8, !tbaa !37
  %6 = load ptr, ptr %0, align 8, !tbaa !46
  %7 = getelementptr inbounds nuw i8, ptr %6, i64 120
  %8 = load i32, ptr %7, align 4, !tbaa !15
  %9 = tail call i32 @Sfm_NtkCreateWindow(ptr noundef nonnull %0, i32 noundef %1, i32 noundef %8) #15
  %.not = icmp eq i32 %9, 0
  br i1 %.not, label %.loopexit, label %10

10:                                               ; preds = %2
  %11 = tail call i32 @Sfm_NtkWindowToSolver(ptr noundef nonnull %0) #15
  %.not42 = icmp eq i32 %11, 0
  br i1 %.not42, label %.loopexit, label %.preheader66

.preheader66:                                     ; preds = %10
  %12 = getelementptr i8, ptr %0, i64 64
  %13 = sext i32 %1 to i64
  %.val5171 = load ptr, ptr %12, align 8, !tbaa !60
  %14 = getelementptr %struct.Vec_Int_t_, ptr %.val5171, i64 %13, i32 1
  %.val1.i72 = load i32, ptr %14, align 4, !tbaa !63
  %15 = icmp sgt i32 %.val1.i72, 0
  br i1 %15, label %.lr.ph, label %.critedge2.sink.split

.lr.ph:                                           ; preds = %.preheader66
  %16 = getelementptr inbounds nuw i8, ptr %0, i64 8
  %17 = getelementptr inbounds nuw i8, ptr %0, i64 12
  %18 = getelementptr inbounds nuw i8, ptr %0, i64 20
  %19 = getelementptr i8, ptr %0, i64 96
  br label %20

20:                                               ; preds = %.lr.ph, %Sfm_ObjIsNode.exit.thread
  %.val5185 = phi ptr [ %.val5171, %.lr.ph ], [ %.val51, %Sfm_ObjIsNode.exit.thread ]
  %indvars.iv = phi i64 [ 0, %.lr.ph ], [ %indvars.iv.next, %Sfm_ObjIsNode.exit.thread ]
  %21 = getelementptr %struct.Vec_Int_t_, ptr %.val5185, i64 %13, i32 2
  %.val2.i = load ptr, ptr %21, align 8, !tbaa !61
  %22 = getelementptr inbounds nuw i32, ptr %.val2.i, i64 %indvars.iv
  %23 = load i32, ptr %22, align 4, !tbaa !54
  %24 = load i32, ptr %16, align 8, !tbaa !35
  %.not.i = icmp slt i32 %23, %24
  br i1 %.not.i, label %Sfm_ObjIsNode.exit.thread, label %Sfm_ObjIsNode.exit

Sfm_ObjIsNode.exit:                               ; preds = %20
  %25 = load i32, ptr %17, align 4, !tbaa !36
  %26 = add nsw i32 %25, %23
  %27 = load i32, ptr %18, align 4, !tbaa !34
  %.not65 = icmp slt i32 %26, %27
  br i1 %.not65, label %28, label %Sfm_ObjIsNode.exit.thread

28:                                               ; preds = %Sfm_ObjIsNode.exit
  %.val54 = load ptr, ptr %19, align 8, !tbaa !60
  %29 = sext i32 %23 to i64
  %30 = getelementptr %struct.Vec_Int_t_, ptr %.val54, i64 %29, i32 1
  %.val.i = load i32, ptr %30, align 4, !tbaa !63
  %31 = icmp eq i32 %.val.i, 1
  br i1 %31, label %32, label %Sfm_ObjIsNode.exit.thread

32:                                               ; preds = %28
  %33 = trunc nuw nsw i64 %indvars.iv to i32
  %34 = tail call i32 @Sfm_NodeResubSolve(ptr noundef nonnull %0, i32 noundef %1, i32 noundef %33, i32 noundef 0)
  %.not49 = icmp eq i32 %34, 0
  br i1 %.not49, label %.Sfm_ObjIsNode.exit.thread_crit_edge, label %.loopexit

.Sfm_ObjIsNode.exit.thread_crit_edge:             ; preds = %32
  %.val51.pre = load ptr, ptr %12, align 8, !tbaa !60
  br label %Sfm_ObjIsNode.exit.thread

Sfm_ObjIsNode.exit.thread:                        ; preds = %.Sfm_ObjIsNode.exit.thread_crit_edge, %20, %Sfm_ObjIsNode.exit, %28
  %.val51 = phi ptr [ %.val51.pre, %.Sfm_ObjIsNode.exit.thread_crit_edge ], [ %.val5185, %20 ], [ %.val5185, %Sfm_ObjIsNode.exit ], [ %.val5185, %28 ]
  %indvars.iv.next = add nuw nsw i64 %indvars.iv, 1
  %35 = getelementptr %struct.Vec_Int_t_, ptr %.val51, i64 %13, i32 1
  %.val1.i = load i32, ptr %35, align 4, !tbaa !63
  %36 = sext i32 %.val1.i to i64
  %37 = icmp slt i64 %indvars.iv.next, %36
  br i1 %37, label %20, label %.critedge, !llvm.loop !91

.critedge:                                        ; preds = %Sfm_ObjIsNode.exit.thread
  %38 = icmp slt i32 %.val1.i, 1
  %39 = load ptr, ptr %0, align 8, !tbaa !46
  %40 = getelementptr inbounds nuw i8, ptr %39, i64 72
  %41 = load i32, ptr %40, align 4, !tbaa !12
  %.not43 = icmp ne i32 %41, 0
  %brmerge = or i1 %.not43, %38
  br i1 %brmerge, label %.critedge2, label %.lr.ph79

.lr.ph79:                                         ; preds = %.critedge
  %42 = getelementptr inbounds nuw i8, ptr %0, i64 8
  %43 = getelementptr inbounds nuw i8, ptr %0, i64 12
  %44 = getelementptr inbounds nuw i8, ptr %0, i64 20
  %45 = getelementptr i8, ptr %0, i64 96
  br label %46

46:                                               ; preds = %.lr.ph79, %60
  %.val5089 = phi ptr [ %.val51, %.lr.ph79 ], [ %.val50, %60 ]
  %indvars.iv82 = phi i64 [ 0, %.lr.ph79 ], [ %indvars.iv.next83, %60 ]
  %47 = getelementptr %struct.Vec_Int_t_, ptr %.val5089, i64 %13, i32 2
  %.val2.i57 = load ptr, ptr %47, align 8, !tbaa !61
  %48 = getelementptr inbounds nuw i32, ptr %.val2.i57, i64 %indvars.iv82
  %49 = load i32, ptr %48, align 4, !tbaa !54
  %50 = load i32, ptr %42, align 8, !tbaa !35
  %.not.i58 = icmp slt i32 %49, %50
  br i1 %.not.i58, label %Sfm_ObjIsNode.exit59.thread, label %Sfm_ObjIsNode.exit59

Sfm_ObjIsNode.exit59:                             ; preds = %46
  %51 = load i32, ptr %43, align 4, !tbaa !36
  %52 = add nsw i32 %51, %49
  %53 = load i32, ptr %44, align 4, !tbaa !34
  %.not64 = icmp slt i32 %52, %53
  br i1 %.not64, label %54, label %Sfm_ObjIsNode.exit59.thread

54:                                               ; preds = %Sfm_ObjIsNode.exit59
  %.val55 = load ptr, ptr %45, align 8, !tbaa !60
  %55 = sext i32 %49 to i64
  %56 = getelementptr %struct.Vec_Int_t_, ptr %.val55, i64 %55, i32 1
  %.val.i60 = load i32, ptr %56, align 4, !tbaa !63
  %57 = icmp eq i32 %.val.i60, 1
  br i1 %57, label %60, label %Sfm_ObjIsNode.exit59.thread

Sfm_ObjIsNode.exit59.thread:                      ; preds = %46, %54, %Sfm_ObjIsNode.exit59
  %58 = trunc nuw nsw i64 %indvars.iv82 to i32
  %59 = tail call i32 @Sfm_NodeResubSolve(ptr noundef nonnull %0, i32 noundef %1, i32 noundef %58, i32 noundef 1)
  %.not45 = icmp eq i32 %59, 0
  br i1 %.not45, label %Sfm_ObjIsNode.exit59.thread._crit_edge, label %.loopexit

Sfm_ObjIsNode.exit59.thread._crit_edge:           ; preds = %Sfm_ObjIsNode.exit59.thread
  %.val50.pre = load ptr, ptr %12, align 8, !tbaa !60
  br label %60

60:                                               ; preds = %Sfm_ObjIsNode.exit59.thread._crit_edge, %54
  %.val50 = phi ptr [ %.val50.pre, %Sfm_ObjIsNode.exit59.thread._crit_edge ], [ %.val5089, %54 ]
  %indvars.iv.next83 = add nuw nsw i64 %indvars.iv82, 1
  %61 = getelementptr %struct.Vec_Int_t_, ptr %.val50, i64 %13, i32 1
  %.val1.i56 = load i32, ptr %61, align 4, !tbaa !63
  %62 = sext i32 %.val1.i56 to i64
  %63 = icmp slt i64 %indvars.iv.next83, %62
  br i1 %63, label %46, label %.critedge2.sink.split, !llvm.loop !92

.critedge2.sink.split:                            ; preds = %60, %.preheader66
  %.val.ph = phi ptr [ %.val5171, %.preheader66 ], [ %.val50, %60 ]
  %64 = load ptr, ptr %0, align 8, !tbaa !46
  br label %.critedge2

.critedge2:                                       ; preds = %.critedge2.sink.split, %.critedge
  %.val = phi ptr [ %.val51, %.critedge ], [ %.val.ph, %.critedge2.sink.split ]
  %65 = phi ptr [ %39, %.critedge ], [ %64, %.critedge2.sink.split ]
  %66 = getelementptr inbounds nuw i8, ptr %65, i64 96
  %67 = load i32, ptr %66, align 4, !tbaa !47
  %.not46 = icmp eq i32 %67, 0
  br i1 %.not46, label %73, label %68

68:                                               ; preds = %.critedge2
  %69 = getelementptr %struct.Vec_Int_t_, ptr %.val, i64 %13, i32 1
  %.val1.i61 = load i32, ptr %69, align 4, !tbaa !63
  %70 = icmp slt i32 %.val1.i61, 7
  br i1 %70, label %71, label %73

71:                                               ; preds = %68
  %72 = tail call i32 @Sfm_NodeResubOne(ptr noundef nonnull %0, i32 noundef %1)
  %.not47 = icmp eq i32 %72, 0
  br i1 %.not47, label %73, label %.loopexit

73:                                               ; preds = %71, %68, %.critedge2
  br label %.loopexit

.loopexit:                                        ; preds = %32, %Sfm_ObjIsNode.exit59.thread, %71, %10, %2, %73
  %.041 = phi i32 [ 0, %73 ], [ 0, %2 ], [ 0, %10 ], [ 1, %71 ], [ 1, %Sfm_ObjIsNode.exit59.thread ], [ 1, %32 ]
  ret i32 %.041
}